target datalayout = "e-m:e-p270:32:32-p271:32:32-p272:64:64-i64:64-i128:128-f80:128-n8:16:32:64-S128"
target triple = "x86_64-unknown-linux-gnu"

%"class.llvh::StringRef" = type { ptr, i64 }
%"class.llvh::SmallPtrSet" = type { %"class.llvh::SmallPtrSetImpl.base", [4 x ptr] }
%"class.llvh::SmallPtrSetImpl.base" = type { %"class.llvh::SmallPtrSetImplBase.base" }
%"class.llvh::SmallPtrSetImplBase.base" = type <{ ptr, ptr, i32, i32, i32 }>
%"class.llvh::cl::Option" = type <{ ptr, i32, i16, [2 x i8], i32, i32, %"class.llvh::StringRef", %"class.llvh::StringRef", %"class.llvh::StringRef", ptr, %"class.llvh::SmallPtrSet", i8, [7 x i8] }>
%"class.llvh::SmallPtrSetImplBase" = type <{ ptr, ptr, i32, i32, i32, [4 x i8] }>

; Function Attrs: mustprogress nounwind uwtable
define linkonce_odr hidden noundef zeroext i1 @_ZNK4llvh19SmallPtrSetImplBase7isSmallEv(ptr noundef nonnull align 8 dereferenceable(28) %this) #0 comdat align 2 {
entry:
  %this.addr = alloca ptr, align 8
  store ptr %this, ptr %this.addr, align 8
  %this1 = load ptr, ptr %this.addr, align 8
  %CurArray = getelementptr inbounds %"class.llvh::SmallPtrSetImplBase", ptr %this1, i32 0, i32 1
  %0 = load ptr, ptr %CurArray, align 8
  %SmallArray = getelementptr inbounds %"class.llvh::SmallPtrSetImplBase", ptr %this1, i32 0, i32 0
  %1 = load ptr, ptr %SmallArray, align 8
  %cmp = icmp eq ptr %0, %1
  ret i1 %cmp
}

; Function Attrs: mustprogress nounwind uwtable
define linkonce_odr hidden void @_ZN4llvh19SmallPtrSetImplBaseD2Ev(ptr noundef nonnull align 8 dereferenceable(28) %this) unnamed_addr #0 comdat align 2 {
entry:
  %this.addr = alloca ptr, align 8
  store ptr %this, ptr %this.addr, align 8
  %this1 = load ptr, ptr %this.addr, align 8
  %call = call noundef zeroext i1 @_ZNK4llvh19SmallPtrSetImplBase7isSmallEv(ptr noundef nonnull align 8 dereferenceable(28) %this1)
  br i1 %call, label %if.end, label %if.then

if.then:                                          ; preds = %entry
  %CurArray = getelementptr inbounds %"class.llvh::SmallPtrSetImplBase", ptr %this1, i32 0, i32 1
  %0 = load ptr, ptr %CurArray, align 8
  call void @free(ptr noundef %0) #6
  br label %if.end

if.end:                                           ; preds = %if.then, %entry
  ret void
}

; Function Attrs: mustprogress nounwind uwtable
define linkonce_odr hidden void @_ZN4llvh15SmallPtrSetImplIPNS_2cl10SubCommandEED2Ev(ptr noundef nonnull align 8 dereferenceable(28) %this) unnamed_addr #0 comdat align 2 {
entry:
  %this.addr = alloca ptr, align 8
  store ptr %this, ptr %this.addr, align 8
  %this1 = load ptr, ptr %this.addr, align 8
  call void @_ZN4llvh19SmallPtrSetImplBaseD2Ev(ptr noundef nonnull align 8 dereferenceable(28) %this1) #6
  ret void
}

; Function Attrs: mustprogress nounwind uwtable
define linkonce_odr hidden void @_ZN4llvh11SmallPtrSetIPNS_2cl10SubCommandELj4EED2Ev(ptr noundef nonnull align 8 dereferenceable(64) %this) unnamed_addr #0 comdat align 2 {
entry:
  %this.addr = alloca ptr, align 8
  store ptr %this, ptr %this.addr, align 8
  %this1 = load ptr, ptr %this.addr, align 8
  call void @_ZN4llvh15SmallPtrSetImplIPNS_2cl10SubCommandEED2Ev(ptr noundef nonnull align 8 dereferenceable(28) %this1) #6
  ret void
}

; Function Attrs: mustprogress nounwind uwtable
define linkonce_odr hidden void @_ZN4llvh2cl6OptionD2Ev(ptr noundef nonnull align 8 dereferenceable(145) %this) unnamed_addr #0 comdat align 2 {
entry:
  %this.addr = alloca ptr, align 8
  store ptr %this, ptr %this.addr, align 8
  %this1 = load ptr, ptr %this.addr, align 8
  store ptr getelementptr inbounds ({ [13 x ptr] }, ptr @_ZTVN4llvh2cl6OptionE, i32 0, i32 0, i32 2), ptr %this1, align 8
  %Subs = getelementptr inbounds %"class.llvh::cl::Option", ptr %this1, i32 0, i32 10
  call void @_ZN4llvh11SmallPtrSetIPNS_2cl10SubCommandELj4EED2Ev(ptr noundef nonnull align 8 dereferenceable(64) %Subs) #6
  ret void
}

; Function Attrs: mustprogress nounwind uwtable
define internal void @_ZN4llvh2cl3optIN12_GLOBAL__N_114VersionPrinterELb1ENS0_6parserIbEEED2Ev(ptr noundef nonnull align 8 dereferenceable(176) %this) unnamed_addr #0 align 2 {
entry:
  %this.addr = alloca ptr, align 8
  store ptr %this, ptr %this.addr, align 8
  %this1 = load ptr, ptr %this.addr, align 8
  call void @_ZN4llvh2cl6OptionD2Ev(ptr noundef nonnull align 8 dereferenceable(145) %this1) #6
  ret void
}

; Function Attrs: mustprogress nounwind uwtable
define internal void @_ZN4llvh2cl3optIN12_GLOBAL__N_114VersionPrinterELb1ENS0_6parserIbEEED0Ev(ptr noundef nonnull align 8 dereferenceable(176) %this) unnamed_addr #0 align 2 {
entry:
  %this.addr = alloca ptr, align 8
  store ptr %this, ptr %this.addr, align 8
  %this1 = load ptr, ptr %this.addr, align 8
  call void @_ZN4llvh2cl3optIN12_GLOBAL__N_114VersionPrinterELb1ENS0_6parserIbEEED2Ev(ptr noundef nonnull align 8 dereferenceable(176) %this1) #6
  call void @_ZdlPv(ptr noundef %this1) #17
  ret void
}